target datalayout = "e-m:e-p270:32:32-p271:32:32-p272:64:64-i64:64-i128:128-f80:128-n8:16:32:64-S128"
target triple = "x86_64-pc-linux-gnu"

%struct.lua_State = type { %struct.GCRef, i8, i8, i8, i8, %struct.MRef, %struct.GCRef, ptr, ptr, %struct.MRef, %struct.MRef, %struct.GCRef, %struct.GCRef, ptr, i32 }
%struct.MRef = type { i64 }
%struct.GCRef = type { i64 }
%union.TValue = type { i64 }
%struct.lua_Debug = type { i32, ptr, ptr, ptr, ptr, i32, i32, i32, i32, [60 x i8], i32 }

; Function Attrs: nounwind uwtable
define hidden ptr @lj_debug_frame(ptr noundef %0, i32 noundef %1, ptr noundef %2) #0 {
  %4 = alloca ptr, align 8
  %5 = alloca ptr, align 8
  %6 = alloca i32, align 4
  %7 = alloca ptr, align 8
  %8 = alloca ptr, align 8
  %9 = alloca ptr, align 8
  %10 = alloca ptr, align 8
  %11 = alloca i32, align 4
  store ptr %0, ptr %5, align 8, !tbaa !4
  store i32 %1, ptr %6, align 4, !tbaa !9
  store ptr %2, ptr %7, align 8, !tbaa !11
  call void @llvm.lifetime.start.p0(i64 8, ptr %8) #8
  call void @llvm.lifetime.start.p0(i64 8, ptr %9) #8
  call void @llvm.lifetime.start.p0(i64 8, ptr %10) #8
  %12 = load ptr, ptr %5, align 8, !tbaa !4
  %13 = getelementptr inbounds nuw %struct.lua_State, ptr %12, i32 0, i32 10
  %14 = getelementptr inbounds nuw %struct.MRef, ptr %13, i32 0, i32 0
  %15 = load i64, ptr %14, align 8, !tbaa !13
  %16 = inttoptr i64 %15 to ptr
  %17 = getelementptr inbounds %union.TValue, ptr %16, i64 1
  store ptr %17, ptr %10, align 8, !tbaa !19
  %18 = load ptr, ptr %5, align 8, !tbaa !4
  %19 = getelementptr inbounds nuw %struct.lua_State, ptr %18, i32 0, i32 7
  %20 = load ptr, ptr %19, align 8, !tbaa !20
  %21 = getelementptr inbounds %union.TValue, ptr %20, i64 -1
  store ptr %21, ptr %8, align 8, !tbaa !19
  store ptr %21, ptr %9, align 8, !tbaa !19
  br label %22

22:                                               ; preds = %86, %3
  %23 = load ptr, ptr %8, align 8, !tbaa !19
  %24 = load ptr, ptr %10, align 8, !tbaa !19
  %25 = icmp ugt ptr %23, %24
  br i1 %25, label %26, label %87

26:                                               ; preds = %22
  %27 = load ptr, ptr %8, align 8, !tbaa !19
  %28 = getelementptr inbounds %union.TValue, ptr %27, i64 -1
  %29 = getelementptr inbounds nuw %struct.GCRef, ptr %28, i32 0, i32 0
  %30 = load i64, ptr %29, align 8, !tbaa !21
  %31 = and i64 %30, 140737488355327
  %32 = inttoptr i64 %31 to ptr
  %33 = load ptr, ptr %5, align 8, !tbaa !4
  %34 = icmp eq ptr %32, %33
  br i1 %34, label %35, label %38

35:                                               ; preds = %26
  %36 = load i32, ptr %6, align 4, !tbaa !9
  %37 = add nsw i32 %36, 1
  store i32 %37, ptr %6, align 4, !tbaa !9
  br label %38

38:                                               ; preds = %35, %26
  %39 = load i32, ptr %6, align 4, !tbaa !9
  %40 = add nsw i32 %39, -1
  store i32 %40, ptr %6, align 4, !tbaa !9
  %41 = icmp eq i32 %39, 0
  br i1 %41, label %42, label %52

42:                                               ; preds = %38
  %43 = load ptr, ptr %9, align 8, !tbaa !19
  %44 = load ptr, ptr %8, align 8, !tbaa !19
  %45 = ptrtoint ptr %43 to i64
  %46 = ptrtoint ptr %44 to i64
  %47 = sub i64 %45, %46
  %48 = sdiv exact i64 %47, 8
  %49 = trunc i64 %48 to i32
  %50 = load ptr, ptr %7, align 8, !tbaa !11
  store i32 %49, ptr %50, align 4, !tbaa !9
  %51 = load ptr, ptr %8, align 8, !tbaa !19
  store ptr %51, ptr %4, align 8
  store i32 1, ptr %11, align 4
  br label %90

52:                                               ; preds = %38
  %53 = load ptr, ptr %8, align 8, !tbaa !19
  store ptr %53, ptr %9, align 8, !tbaa !19
  %54 = load ptr, ptr %8, align 8, !tbaa !19
  %55 = load i64, ptr %54, align 8, !tbaa !21
  %56 = and i64 %55, 3
  %57 = icmp eq i64 %56, 0
  br i1 %57, label %58, label %71

58:                                               ; preds = %52
  %59 = load ptr, ptr %8, align 8, !tbaa !19
  %60 = load ptr, ptr %8, align 8, !tbaa !19
  %61 = load i64, ptr %60, align 8, !tbaa !21
  %62 = inttoptr i64 %61 to ptr
  %63 = getelementptr inbounds i32, ptr %62, i64 -1
  %64 = load i32, ptr %63, align 4, !tbaa !9
  %65 = lshr i32 %64, 8
  %66 = and i32 %65, 255
  %67 = add i32 2, %66
  %68 = zext i32 %67 to i64
  %69 = sub i64 0, %68
  %70 = getelementptr inbounds %union.TValue, ptr %59, i64 %69
  store ptr %70, ptr %8, align 8, !tbaa !19
  br label %86

71:                                               ; preds = %52
  %72 = load ptr, ptr %8, align 8, !tbaa !19
  %73 = load i64, ptr %72, align 8, !tbaa !21
  %74 = and i64 %73, 7
  %75 = icmp eq i64 %74, 3
  br i1 %75, label %76, label %79

76:                                               ; preds = %71
  %77 = load i32, ptr %6, align 4, !tbaa !9
  %78 = add nsw i32 %77, 1
  store i32 %78, ptr %6, align 4, !tbaa !9
  br label %79

79:                                               ; preds = %76, %71
  %80 = load ptr, ptr %8, align 8, !tbaa !19
  %81 = load ptr, ptr %8, align 8, !tbaa !19
  %82 = load i64, ptr %81, align 8, !tbaa !21
  %83 = and i64 %82, -8
  %84 = sub i64 0, %83
  %85 = getelementptr inbounds i8, ptr %80, i64 %84
  store ptr %85, ptr %8, align 8, !tbaa !19
  br label %86

86:                                               ; preds = %79, %58
  br label %22, !llvm.loop !22

87:                                               ; preds = %22
  %88 = load i32, ptr %6, align 4, !tbaa !9
  %89 = load ptr, ptr %7, align 8, !tbaa !11
  store i32 %88, ptr %89, align 4, !tbaa !9
  store ptr null, ptr %4, align 8
  store i32 1, ptr %11, align 4
  br label %90

90:                                               ; preds = %87, %42
  call void @llvm.lifetime.end.p0(i64 8, ptr %10) #8
  call void @llvm.lifetime.end.p0(i64 8, ptr %9) #8
  call void @llvm.lifetime.end.p0(i64 8, ptr %8) #8
  %91 = load ptr, ptr %4, align 8
  ret ptr %91
}

; Function Attrs: nounwind uwtable
define dso_local i32 @lua_getstack(ptr noundef %0, i32 noundef %1, ptr noundef %2) #0 {
  %4 = alloca i32, align 4
  %5 = alloca ptr, align 8
  %6 = alloca i32, align 4
  %7 = alloca ptr, align 8
  %8 = alloca i32, align 4
  %9 = alloca ptr, align 8
  %10 = alloca i32, align 4
  store ptr %0, ptr %5, align 8, !tbaa !4
  store i32 %1, ptr %6, align 4, !tbaa !9
  store ptr %2, ptr %7, align 8, !tbaa !73
  call void @llvm.lifetime.start.p0(i64 4, ptr %8) #8
  call void @llvm.lifetime.start.p0(i64 8, ptr %9) #8
  %11 = load ptr, ptr %5, align 8, !tbaa !4
  %12 = load i32, ptr %6, align 4, !tbaa !9
  %13 = call ptr @lj_debug_frame(ptr noundef %11, i32 noundef %12, ptr noundef %8)
  store ptr %13, ptr %9, align 8, !tbaa !19
  %14 = load ptr, ptr %9, align 8, !tbaa !19
  %15 = icmp ne ptr %14, null
  br i1 %15, label %16, label %33

16:                                               ; preds = %3
  %17 = load i32, ptr %8, align 4, !tbaa !9
  %18 = shl i32 %17, 16
  %19 = load ptr, ptr %9, align 8, !tbaa !19
  %20 = load ptr, ptr %5, align 8, !tbaa !4
  %21 = getelementptr inbounds nuw %struct.lua_State, ptr %20, i32 0, i32 10
  %22 = getelementptr inbounds nuw %struct.MRef, ptr %21, i32 0, i32 0
  %23 = load i64, ptr %22, align 8, !tbaa !13
  %24 = inttoptr i64 %23 to ptr
  %25 = ptrtoint ptr %19 to i64
  %26 = ptrtoint ptr %24 to i64
  %27 = sub i64 %25, %26
  %28 = sdiv exact i64 %27, 8
  %29 = trunc i64 %28 to i32
  %30 = add nsw i32 %18, %29
  %31 = load ptr, ptr %7, align 8, !tbaa !73
  %32 = getelementptr inbounds nuw %struct.lua_Debug, ptr %31, i32 0, i32 10
  store i32 %30, ptr %32, align 4, !tbaa !77
  store i32 1, ptr %4, align 4
  store i32 1, ptr %10, align 4
  br label %39

33:                                               ; preds = %3
  %34 = load i32, ptr %6, align 4, !tbaa !9
  %35 = load i32, ptr %8, align 4, !tbaa !9
  %36 = sub nsw i32 %34, %35
  %37 = load ptr, ptr %7, align 8, !tbaa !73
  %38 = getelementptr inbounds nuw %struct.lua_Debug, ptr %37, i32 0, i32 10
  store i32 %36, ptr %38, align 4, !tbaa !77
  store i32 0, ptr %4, align 4
  store i32 1, ptr %10, align 4
  br label %39

39:                                               ; preds = %33, %16
  call void @llvm.lifetime.end.p0(i64 8, ptr %9) #8
  call void @llvm.lifetime.end.p0(i64 4, ptr %8) #8
  %40 = load i32, ptr %4, align 4
  ret i32 %40
}