; Function Attrs: nofree norecurse nosync nounwind memory(read, argmem: readwrite, inaccessiblemem: none) uwtable
define dso_local range(i32 0, 2) i32 @lua_getstack(ptr noundef readonly captures(address) %0, i32 noundef %1, ptr noundef writeonly captures(none) %2) local_unnamed_addr #0 {
  %4 = getelementptr inbounds nuw i8, ptr %0, i64 56
  %5 = load i64, ptr %4, align 8, !tbaa !4
  %6 = inttoptr i64 %5 to ptr
  %7 = getelementptr inbounds nuw i8, ptr %6, i64 8
  %8 = getelementptr inbounds nuw i8, ptr %0, i64 32
  %9 = load ptr, ptr %8, align 8, !tbaa !14
  %10 = getelementptr inbounds i8, ptr %9, i64 -8
  %11 = icmp ugt ptr %10, %7
  br i1 %11, label %.lr.ph.i.preheader, label %.loopexit

.lr.ph.i.preheader:                               ; preds = %3
  %12 = getelementptr inbounds i8, ptr %9, i64 -16
  %13 = load i64, ptr %12, align 8, !tbaa !15
  %14 = and i64 %13, 140737488355327
  %15 = inttoptr i64 %14 to ptr
  %16 = icmp eq ptr %0, %15
  %17 = zext i1 %16 to i32
  %spec.select.i16 = add nsw i32 %1, %17
  %18 = icmp eq i32 %spec.select.i16, 0
  br i1 %18, label %.lr.ph.i._crit_edge, label %.lr.ph

.lr.ph.i:                                         ; preds = %46
  %19 = getelementptr inbounds i8, ptr %.1.i, i64 -8
  %20 = load i64, ptr %19, align 8, !tbaa !15
  %21 = and i64 %20, 140737488355327
  %22 = inttoptr i64 %21 to ptr
  %23 = icmp eq ptr %0, %22
  %24 = zext i1 %23 to i32
  %spec.select.i = add nsw i32 %.2.i, %24
  %25 = icmp eq i32 %spec.select.i, 0
  br i1 %25, label %.lr.ph.i._crit_edge, label %.lr.ph, !llvm.loop !16

.lr.ph:                                           ; preds = %.lr.ph.i.preheader, %.lr.ph.i
  %spec.select.i18 = phi i32 [ %spec.select.i, %.lr.ph.i ], [ %spec.select.i16, %.lr.ph.i.preheader ]
  %.02331.i17 = phi ptr [ %.1.i, %.lr.ph.i ], [ %10, %.lr.ph.i.preheader ]
  %26 = add nsw i32 %spec.select.i18, -1
  %27 = load i64, ptr %.02331.i17, align 8, !tbaa !15
  %28 = and i64 %27, 3
  %29 = icmp eq i64 %28, 0
  br i1 %29, label %30, label %40

30:                                               ; preds = %.lr.ph
  %31 = inttoptr i64 %27 to ptr
  %32 = getelementptr inbounds i8, ptr %31, i64 -4
  %33 = load i32, ptr %32, align 4, !tbaa !18
  %34 = lshr i32 %33, 8
  %35 = and i32 %34, 255
  %36 = add nuw nsw i32 %35, 2
  %37 = zext nneg i32 %36 to i64
  %38 = sub nsw i64 0, %37
  %39 = getelementptr inbounds %union.TValue, ptr %.02331.i17, i64 %38
  br label %46

40:                                               ; preds = %.lr.ph
  %41 = and i64 %27, 7
  %42 = icmp eq i64 %41, 3
  %spec.select26.i = select i1 %42, i32 %spec.select.i18, i32 %26
  %43 = and i64 %27, -8
  %44 = sub i64 0, %43
  %45 = getelementptr inbounds i8, ptr %.02331.i17, i64 %44
  br label %46

46:                                               ; preds = %40, %30
  %.2.i = phi i32 [ %26, %30 ], [ %spec.select26.i, %40 ]
  %.1.i = phi ptr [ %39, %30 ], [ %45, %40 ]
  %47 = icmp ugt ptr %.1.i, %7
  br i1 %47, label %.lr.ph.i, label %.loopexit, !llvm.loop !16

.lr.ph.i._crit_edge:                              ; preds = %.lr.ph.i, %.lr.ph.i.preheader
  %.02232.i.lcssa = phi ptr [ %10, %.lr.ph.i.preheader ], [ %.02331.i17, %.lr.ph.i ]
  %.02331.i.lcssa = phi ptr [ %10, %.lr.ph.i.preheader ], [ %.1.i, %.lr.ph.i ]
  %48 = ptrtoint ptr %.02232.i.lcssa to i64
  %49 = ptrtoint ptr %.02331.i.lcssa to i64
  %50 = sub i64 %48, %49
  %51 = trunc i64 %50 to i32
  %52 = shl i32 %51, 13
  %53 = and i32 %52, -65536
  %54 = sub i64 %49, %5
  %55 = lshr exact i64 %54, 3
  %56 = trunc i64 %55 to i32
  %57 = add nsw i32 %53, %56
  br label %59

.loopexit:                                        ; preds = %46, %3
  %storemerge.i.ph = phi i32 [ %1, %3 ], [ %.2.i, %46 ]
  %58 = sub nsw i32 %1, %storemerge.i.ph
  br label %59

59:                                               ; preds = %.loopexit, %.lr.ph.i._crit_edge
  %.sink = phi i32 [ %58, %.loopexit ], [ %57, %.lr.ph.i._crit_edge ]
  %.0 = phi i32 [ 0, %.loopexit ], [ 1, %.lr.ph.i._crit_edge ]
  %60 = getelementptr inbounds nuw i8, ptr %2, i64 116
  store i32 %.sink, ptr %60, align 4, !tbaa !56
  ret i32 %.0
}